; Function Attrs: mustprogress uwtable
define noundef zeroext i1 @_ZNK6icu_756number4impl22MutablePatternModifier12needsPluralsEv(ptr nocapture noundef nonnull readonly align 8 dereferenceable(392) %this) local_unnamed_addr #1 align 2 {
entry:
  %statusLocal = alloca i32, align 4
  store i32 0, ptr %statusLocal, align 4
  %fPatternInfo = getelementptr inbounds i8, ptr %this, i64 32
  %0 = load ptr, ptr %fPatternInfo, align 8
  %vtable = load ptr, ptr %0, align 8
  %vfn = getelementptr inbounds i8, ptr %vtable, i64 72
  %1 = load ptr, ptr %vfn, align 8
  %call = call noundef zeroext i1 %1(ptr noundef nonnull align 8 dereferenceable(8) %0, i32 noundef -8, ptr noundef nonnull align 4 dereferenceable(4) %statusLocal)
  ret i1 %call
}